target datalayout = "e-m:e-p270:32:32-p271:32:32-p272:64:64-i64:64-i128:128-f80:128-n8:16:32:64-S128"
target triple = "x86_64-pc-linux-gnu"

%struct.Curl_share = type { i32, i32, i32, ptr, ptr, ptr, %struct.cpool, %struct.Curl_hash, ptr, %struct.PslCache, ptr, ptr }
%struct.cpool = type { %struct.Curl_hash, i64, i64, i64, %struct.curltime, %struct.Curl_llist, ptr, ptr, ptr, ptr, i8 }
%struct.curltime = type { i64, i32 }
%struct.Curl_llist = type { ptr, ptr, ptr, i64 }
%struct.Curl_hash = type { ptr, ptr, ptr, ptr, i64, i64 }
%struct.PslCache = type { ptr, i64, i8 }

@Curl_cfree = external global ptr, align 8

; Function Attrs: nounwind uwtable
define i32 @curl_share_cleanup(ptr noundef %0) #0 {
  %2 = alloca i32, align 4
  %3 = alloca ptr, align 8
  %4 = alloca ptr, align 8
  %5 = alloca i32, align 4
  store ptr %0, ptr %3, align 8, !tbaa !3
  call void @llvm.lifetime.start.p0(i64 8, ptr %4) #4
  %6 = load ptr, ptr %3, align 8, !tbaa !3
  store ptr %6, ptr %4, align 8, !tbaa !7
  %7 = load ptr, ptr %4, align 8, !tbaa !7
  %8 = icmp ne ptr %7, null
  br i1 %8, label %9, label %14

9:                                                ; preds = %1
  %10 = load ptr, ptr %4, align 8, !tbaa !7
  %11 = getelementptr inbounds nuw %struct.Curl_share, ptr %10, i32 0, i32 0
  %12 = load i32, ptr %11, align 8, !tbaa !9
  %13 = icmp eq i32 %12, 2115074590
  br i1 %13, label %15, label %14

14:                                               ; preds = %9, %1
  store i32 3, ptr %2, align 4
  store i32 1, ptr %5, align 4
  br label %91

15:                                               ; preds = %9
  %16 = load ptr, ptr %4, align 8, !tbaa !7
  %17 = getelementptr inbounds nuw %struct.Curl_share, ptr %16, i32 0, i32 3
  %18 = load ptr, ptr %17, align 8, !tbaa !34
  %19 = icmp ne ptr %18, null
  br i1 %19, label %20, label %27

20:                                               ; preds = %15
  %21 = load ptr, ptr %4, align 8, !tbaa !7
  %22 = getelementptr inbounds nuw %struct.Curl_share, ptr %21, i32 0, i32 3
  %23 = load ptr, ptr %22, align 8, !tbaa !34
  %24 = load ptr, ptr %4, align 8, !tbaa !7
  %25 = getelementptr inbounds nuw %struct.Curl_share, ptr %24, i32 0, i32 5
  %26 = load ptr, ptr %25, align 8, !tbaa !36
  call void %23(ptr noundef null, i32 noundef 1, i32 noundef 2, ptr noundef %26)
  br label %27

27:                                               ; preds = %20, %15
  %28 = load ptr, ptr %4, align 8, !tbaa !7
  %29 = getelementptr inbounds nuw %struct.Curl_share, ptr %28, i32 0, i32 2
  %30 = load volatile i32, ptr %29, align 8, !tbaa !29
  %31 = icmp ne i32 %30, 0
  br i1 %31, label %32, label %45

32:                                               ; preds = %27
  %33 = load ptr, ptr %4, align 8, !tbaa !7
  %34 = getelementptr inbounds nuw %struct.Curl_share, ptr %33, i32 0, i32 4
  %35 = load ptr, ptr %34, align 8, !tbaa !35
  %36 = icmp ne ptr %35, null
  br i1 %36, label %37, label %44

37:                                               ; preds = %32
  %38 = load ptr, ptr %4, align 8, !tbaa !7
  %39 = getelementptr inbounds nuw %struct.Curl_share, ptr %38, i32 0, i32 4
  %40 = load ptr, ptr %39, align 8, !tbaa !35
  %41 = load ptr, ptr %4, align 8, !tbaa !7
  %42 = getelementptr inbounds nuw %struct.Curl_share, ptr %41, i32 0, i32 5
  %43 = load ptr, ptr %42, align 8, !tbaa !36
  call void %40(ptr noundef null, i32 noundef 1, ptr noundef %43)
  br label %44

44:                                               ; preds = %37, %32
  store i32 2, ptr %2, align 4
  store i32 1, ptr %5, align 4
  br label %91

45:                                               ; preds = %27
  %46 = load ptr, ptr %4, align 8, !tbaa !7
  %47 = getelementptr inbounds nuw %struct.Curl_share, ptr %46, i32 0, i32 1
  %48 = load i32, ptr %47, align 4, !tbaa !27
  %49 = and i32 %48, 32
  %50 = icmp ne i32 %49, 0
  br i1 %50, label %51, label %54

51:                                               ; preds = %45
  %52 = load ptr, ptr %4, align 8, !tbaa !7
  %53 = getelementptr inbounds nuw %struct.Curl_share, ptr %52, i32 0, i32 6
  call void @Curl_cpool_destroy(ptr noundef %53)
  br label %54

54:                                               ; preds = %51, %45
  %55 = load ptr, ptr %4, align 8, !tbaa !7
  %56 = getelementptr inbounds nuw %struct.Curl_share, ptr %55, i32 0, i32 7
  call void @Curl_hash_destroy(ptr noundef %56)
  %57 = load ptr, ptr %4, align 8, !tbaa !7
  %58 = getelementptr inbounds nuw %struct.Curl_share, ptr %57, i32 0, i32 8
  %59 = load ptr, ptr %58, align 8, !tbaa !30
  call void @Curl_cookie_cleanup(ptr noundef %59)
  %60 = load ptr, ptr %4, align 8, !tbaa !7
  %61 = getelementptr inbounds nuw %struct.Curl_share, ptr %60, i32 0, i32 10
  call void @Curl_hsts_cleanup(ptr noundef %61)
  %62 = load ptr, ptr %4, align 8, !tbaa !7
  %63 = getelementptr inbounds nuw %struct.Curl_share, ptr %62, i32 0, i32 11
  %64 = load ptr, ptr %63, align 8, !tbaa !32
  %65 = icmp ne ptr %64, null
  br i1 %65, label %66, label %72

66:                                               ; preds = %54
  %67 = load ptr, ptr %4, align 8, !tbaa !7
  %68 = getelementptr inbounds nuw %struct.Curl_share, ptr %67, i32 0, i32 11
  %69 = load ptr, ptr %68, align 8, !tbaa !32
  call void @Curl_ssl_scache_destroy(ptr noundef %69)
  %70 = load ptr, ptr %4, align 8, !tbaa !7
  %71 = getelementptr inbounds nuw %struct.Curl_share, ptr %70, i32 0, i32 11
  store ptr null, ptr %71, align 8, !tbaa !32
  br label %72

72:                                               ; preds = %66, %54
  %73 = load ptr, ptr %4, align 8, !tbaa !7
  %74 = getelementptr inbounds nuw %struct.Curl_share, ptr %73, i32 0, i32 9
  call void @Curl_psl_destroy(ptr noundef %74)
  %75 = load ptr, ptr %4, align 8, !tbaa !7
  %76 = getelementptr inbounds nuw %struct.Curl_share, ptr %75, i32 0, i32 4
  %77 = load ptr, ptr %76, align 8, !tbaa !35
  %78 = icmp ne ptr %77, null
  br i1 %78, label %79, label %86

79:                                               ; preds = %72
  %80 = load ptr, ptr %4, align 8, !tbaa !7
  %81 = getelementptr inbounds nuw %struct.Curl_share, ptr %80, i32 0, i32 4
  %82 = load ptr, ptr %81, align 8, !tbaa !35
  %83 = load ptr, ptr %4, align 8, !tbaa !7
  %84 = getelementptr inbounds nuw %struct.Curl_share, ptr %83, i32 0, i32 5
  %85 = load ptr, ptr %84, align 8, !tbaa !36
  call void %82(ptr noundef null, i32 noundef 1, ptr noundef %85)
  br label %86

86:                                               ; preds = %79, %72
  %87 = load ptr, ptr %4, align 8, !tbaa !7
  %88 = getelementptr inbounds nuw %struct.Curl_share, ptr %87, i32 0, i32 0
  store i32 0, ptr %88, align 8, !tbaa !9
  %89 = load ptr, ptr @Curl_cfree, align 8, !tbaa !3
  %90 = load ptr, ptr %4, align 8, !tbaa !7
  call void %89(ptr noundef %90)
  store i32 0, ptr %2, align 4
  store i32 1, ptr %5, align 4
  br label %91

91:                                               ; preds = %86, %44, %14
  call void @llvm.lifetime.end.p0(i64 8, ptr %4) #4
  %92 = load i32, ptr %2, align 4
  ret i32 %92
}