; Function Attrs: nounwind uwtable
define range(i32 0, 4) i32 @curl_share_cleanup(ptr noundef %0) local_unnamed_addr #0 {
  %.not = icmp eq ptr %0, null
  br i1 %.not, label %43, label %2

2:                                                ; preds = %1
  %3 = load i32, ptr %0, align 8, !tbaa !7
  %4 = icmp eq i32 %3, 2115074590
  br i1 %4, label %5, label %43

5:                                                ; preds = %2
  %6 = getelementptr inbounds nuw i8, ptr %0, i64 16
  %7 = load ptr, ptr %6, align 8, !tbaa !33
  %.not29 = icmp eq ptr %7, null
  br i1 %.not29, label %11, label %8

8:                                                ; preds = %5
  %9 = getelementptr inbounds nuw i8, ptr %0, i64 32
  %10 = load ptr, ptr %9, align 8, !tbaa !35
  tail call void %7(ptr noundef null, i32 noundef 1, i32 noundef 2, ptr noundef %10) #4
  br label %11

11:                                               ; preds = %8, %5
  %12 = getelementptr inbounds nuw i8, ptr %0, i64 8
  %13 = load volatile i32, ptr %12, align 8, !tbaa !27
  %.not30 = icmp eq i32 %13, 0
  br i1 %.not30, label %20, label %14

14:                                               ; preds = %11
  %15 = getelementptr inbounds nuw i8, ptr %0, i64 24
  %16 = load ptr, ptr %15, align 8, !tbaa !34
  %.not34 = icmp eq ptr %16, null
  br i1 %.not34, label %43, label %17

17:                                               ; preds = %14
  %18 = getelementptr inbounds nuw i8, ptr %0, i64 32
  %19 = load ptr, ptr %18, align 8, !tbaa !35
  tail call void %16(ptr noundef null, i32 noundef 1, ptr noundef %19) #4
  br label %43

20:                                               ; preds = %11
  %21 = getelementptr inbounds nuw i8, ptr %0, i64 4
  %22 = load i32, ptr %21, align 4, !tbaa !26
  %23 = and i32 %22, 32
  %.not31 = icmp eq i32 %23, 0
  br i1 %.not31, label %26, label %24

24:                                               ; preds = %20
  %25 = getelementptr inbounds nuw i8, ptr %0, i64 40
  tail call void @Curl_cpool_destroy(ptr noundef nonnull %25) #4
  br label %26

26:                                               ; preds = %24, %20
  %27 = getelementptr inbounds nuw i8, ptr %0, i64 200
  tail call void @Curl_hash_destroy(ptr noundef nonnull %27) #4
  %28 = getelementptr inbounds nuw i8, ptr %0, i64 248
  %29 = load ptr, ptr %28, align 8, !tbaa !29
  tail call void @Curl_cookie_cleanup(ptr noundef %29) #4
  %30 = getelementptr inbounds nuw i8, ptr %0, i64 280
  tail call void @Curl_hsts_cleanup(ptr noundef nonnull %30) #4
  %31 = getelementptr inbounds nuw i8, ptr %0, i64 288
  %32 = load ptr, ptr %31, align 8, !tbaa !31
  %.not32 = icmp eq ptr %32, null
  br i1 %.not32, label %34, label %33

33:                                               ; preds = %26
  tail call void @Curl_ssl_scache_destroy(ptr noundef nonnull %32) #4
  store ptr null, ptr %31, align 8, !tbaa !31
  br label %34

34:                                               ; preds = %33, %26
  %35 = getelementptr inbounds nuw i8, ptr %0, i64 256
  tail call void @Curl_psl_destroy(ptr noundef nonnull %35) #4
  %36 = getelementptr inbounds nuw i8, ptr %0, i64 24
  %37 = load ptr, ptr %36, align 8, !tbaa !34
  %.not33 = icmp eq ptr %37, null
  br i1 %.not33, label %41, label %38

38:                                               ; preds = %34
  %39 = getelementptr inbounds nuw i8, ptr %0, i64 32
  %40 = load ptr, ptr %39, align 8, !tbaa !35
  tail call void %37(ptr noundef null, i32 noundef 1, ptr noundef %40) #4
  br label %41

41:                                               ; preds = %38, %34
  store i32 0, ptr %0, align 8, !tbaa !7
  %42 = load ptr, ptr @Curl_cfree, align 8, !tbaa !3
  tail call void %42(ptr noundef nonnull %0) #4
  br label %43

43:                                               ; preds = %14, %17, %1, %2, %41
  %.0 = phi i32 [ 0, %41 ], [ 3, %2 ], [ 3, %1 ], [ 2, %17 ], [ 2, %14 ]
  ret i32 %.0
}